target datalayout = "e-m:e-p270:32:32-p271:32:32-p272:64:64-i64:64-i128:128-f80:128-n8:16:32:64-S128"
target triple = "x86_64-pc-linux-gnu"

%struct.USerializedSet = type { ptr, i32, i32, [8 x i16] }

; Function Attrs: mustprogress nounwind uwtable
define i32 @uset_getSerializedRangeCount_77(ptr noundef %0) #3 {
  %2 = alloca i32, align 4
  %3 = alloca ptr, align 8
  store ptr %0, ptr %3, align 8, !tbaa !49
  %4 = load ptr, ptr %3, align 8, !tbaa !49
  %5 = icmp eq ptr %4, null
  br i1 %5, label %6, label %7

6:                                                ; preds = %1
  store i32 0, ptr %2, align 4
  br label %22

7:                                                ; preds = %1
  %8 = load ptr, ptr %3, align 8, !tbaa !49
  %9 = getelementptr inbounds nuw %struct.USerializedSet, ptr %8, i32 0, i32 1
  %10 = load i32, ptr %9, align 8, !tbaa !51
  %11 = load ptr, ptr %3, align 8, !tbaa !49
  %12 = getelementptr inbounds nuw %struct.USerializedSet, ptr %11, i32 0, i32 2
  %13 = load i32, ptr %12, align 4, !tbaa !53
  %14 = load ptr, ptr %3, align 8, !tbaa !49
  %15 = getelementptr inbounds nuw %struct.USerializedSet, ptr %14, i32 0, i32 1
  %16 = load i32, ptr %15, align 8, !tbaa !51
  %17 = sub nsw i32 %13, %16
  %18 = sdiv i32 %17, 2
  %19 = add nsw i32 %10, %18
  %20 = add nsw i32 %19, 1
  %21 = sdiv i32 %20, 2
  store i32 %21, ptr %2, align 4
  br label %22

22:                                               ; preds = %7, %6
  %23 = load i32, ptr %2, align 4
  ret i32 %23
}