; Function Attrs: mustprogress nofree norecurse nosync nounwind willreturn memory(argmem: read) uwtable
define range(i32 -1073741823, 1073741824) i32 @uset_getSerializedRangeCount_77(ptr noundef readonly %0) local_unnamed_addr #4 {
  %2 = icmp eq ptr %0, null
  br i1 %2, label %13, label %3

3:                                                ; preds = %1
  %4 = getelementptr inbounds nuw i8, ptr %0, i64 8
  %5 = load i32, ptr %4, align 8, !tbaa !29
  %6 = getelementptr inbounds nuw i8, ptr %0, i64 12
  %7 = load i32, ptr %6, align 4, !tbaa !35
  %8 = sub nsw i32 %7, %5
  %9 = sdiv i32 %8, 2
  %10 = add i32 %5, 1
  %11 = add i32 %10, %9
  %12 = sdiv i32 %11, 2
  br label %13

13:                                               ; preds = %1, %3
  %.0 = phi i32 [ %12, %3 ], [ 0, %1 ]
  ret i32 %.0
}